target datalayout = "e-m:e-p270:32:32-p271:32:32-p272:64:64-i64:64-i128:128-f80:128-n8:16:32:64-S128"
target triple = "x86_64-pc-linux-gnu"

%struct.step_record_t = type { i32, ptr, ptr, ptr, i32, ptr, ptr, i32, i32, i32, i32, i16, i16, ptr, i16, i32, ptr, i32, ptr, ptr, ptr, ptr, ptr, ptr, ptr, ptr, ptr, i64, i16, i64, i16, ptr, i16, ptr, i32, i64, i32, ptr, i32, i32, %struct.slurm_step_id_msg, ptr, ptr, ptr, ptr, i16, i64, i64, ptr, ptr, ptr, ptr, ptr, ptr, ptr, ptr }
%struct.slurm_step_id_msg = type { i64, i32, i32, i32 }
%struct.slurm_step_layout = type { ptr, i32, ptr, ptr, ptr, i32, ptr, i16, i16, ptr, i32, i32, ptr }
%struct.job_record = type { i32, ptr, ptr, ptr, ptr, i16, i32, i32, i32, ptr, i32, ptr, ptr, i16, ptr, double, i64, ptr, ptr, ptr, ptr, ptr, ptr, i32, ptr, i32, i64, i64, i32, i32, ptr, i16, i64, i64, i8, i32, ptr, ptr, ptr, ptr, ptr, ptr, ptr, ptr, i32, ptr, ptr, i32, ptr, i32, ptr, i32, ptr, i32, ptr, ptr, ptr, ptr, ptr, ptr, i32, i16, i64, ptr, ptr, ptr, ptr, %struct.acct_policy_limit_set_t, i16, ptr, ptr, ptr, ptr, ptr, i32, ptr, ptr, ptr, ptr, ptr, i32, i32, ptr, ptr, ptr, i16, ptr, ptr, i8, ptr, ptr, i64, i64, i8, i32, i32, i8, i32, ptr, i32, i64, i32, ptr, ptr, ptr, i8, i16, i64, i32, ptr, ptr, ptr, ptr, ptr, i16, i32, ptr, ptr, ptr, ptr, i32, ptr, i32, i16, i64, ptr, i32, i32, ptr, i64, ptr, ptr, i64, i32, i32, i64, i32, i32, ptr, ptr, ptr, ptr, ptr, ptr, ptr, ptr, ptr, ptr, ptr, ptr, i32, ptr, i16, i16, i16, i16, ptr, i32, i32, i8, i64 }
%struct.acct_policy_limit_set_t = type { i16, i16, ptr }
%struct.job_details_t = type { i32, ptr, i64, ptr, i32, ptr, i64, ptr, i16, i16, ptr, i16, i32, i32, i32, i16, ptr, i16, ptr, ptr, ptr, i16, ptr, ptr, ptr, ptr, i32, ptr, ptr, ptr, ptr, ptr, i32, i32, i32, ptr, ptr, i16, i32, i32, i32, i32, i32, i32, i16, i16, i32, i8, i8, i32, i32, i64, i64, i16, i32, ptr, ptr, i8, ptr, i32, ptr, i64, ptr, ptr, i16, i16, i16, i8, ptr, ptr, ptr, ptr, ptr, ptr, i64, i32, i32, i8, ptr, i16, ptr, ptr, i16 }
%struct.dbd_step_start_msg = type { i32, i64, ptr, ptr, ptr, ptr, i32, i64, i64, i32, i32, i32, %struct.slurm_step_id_msg, ptr, i32, i32, i32, ptr }

@.str.65 = private unnamed_addr constant [76 x i8] c"jobacct_storage_p_step_start: Not inputing this job, it has no submit time.\00", align 1

; Function Attrs: nounwind uwtable
define dso_local i32 @as_build_step_start_msg(ptr noundef %0, ptr noundef %1) #0 {
  %3 = alloca i32, align 4
  %4 = alloca ptr, align 8
  %5 = alloca ptr, align 8
  %6 = alloca i32, align 4
  %7 = alloca i32, align 4
  %8 = alloca i32, align 4
  %9 = alloca ptr, align 8
  %10 = alloca i32, align 4
  store ptr %0, ptr %4, align 8
  store ptr %1, ptr %5, align 8
  call void @llvm.lifetime.start.p0(i64 4, ptr %6) #8
  store i32 0, ptr %6, align 4
  call void @llvm.lifetime.start.p0(i64 4, ptr %7) #8
  store i32 0, ptr %7, align 4
  call void @llvm.lifetime.start.p0(i64 4, ptr %8) #8
  store i32 0, ptr %8, align 4
  call void @llvm.lifetime.start.p0(i64 8, ptr %9) #8
  store ptr null, ptr %9, align 8
  %11 = load ptr, ptr %5, align 8
  %12 = getelementptr inbounds nuw %struct.step_record_t, ptr %11, i32 0, i32 41
  %13 = load ptr, ptr %12, align 8
  %14 = icmp ne ptr %13, null
  br i1 %14, label %15, label %22

15:                                               ; preds = %2
  %16 = load ptr, ptr %5, align 8
  %17 = getelementptr inbounds nuw %struct.step_record_t, ptr %16, i32 0, i32 41
  %18 = load ptr, ptr %17, align 8
  %19 = getelementptr inbounds nuw %struct.slurm_step_layout, ptr %18, i32 0, i32 10
  %20 = load i32, ptr %19, align 8
  %21 = icmp ne i32 %20, 0
  br i1 %21, label %38, label %22

22:                                               ; preds = %15, %2
  %23 = load ptr, ptr %5, align 8
  %24 = getelementptr inbounds nuw %struct.step_record_t, ptr %23, i32 0, i32 21
  %25 = load ptr, ptr %24, align 8
  %26 = getelementptr inbounds nuw %struct.job_record, ptr %25, i32 0, i32 136
  %27 = load i32, ptr %26, align 8
  store i32 %27, ptr %6, align 4
  %28 = load ptr, ptr %5, align 8
  %29 = getelementptr inbounds nuw %struct.step_record_t, ptr %28, i32 0, i32 21
  %30 = load ptr, ptr %29, align 8
  %31 = getelementptr inbounds nuw %struct.job_record, ptr %30, i32 0, i32 137
  %32 = load i32, ptr %31, align 4
  store i32 %32, ptr %7, align 4
  %33 = load ptr, ptr %5, align 8
  %34 = getelementptr inbounds nuw %struct.step_record_t, ptr %33, i32 0, i32 21
  %35 = load ptr, ptr %34, align 8
  %36 = getelementptr inbounds nuw %struct.job_record, ptr %35, i32 0, i32 75
  %37 = load ptr, ptr %36, align 8
  store ptr %37, ptr %9, align 8
  br label %59

38:                                               ; preds = %15
  %39 = load ptr, ptr %5, align 8
  %40 = getelementptr inbounds nuw %struct.step_record_t, ptr %39, i32 0, i32 41
  %41 = load ptr, ptr %40, align 8
  %42 = getelementptr inbounds nuw %struct.slurm_step_layout, ptr %41, i32 0, i32 10
  %43 = load i32, ptr %42, align 8
  store i32 %43, ptr %6, align 4
  %44 = load ptr, ptr %5, align 8
  %45 = getelementptr inbounds nuw %struct.step_record_t, ptr %44, i32 0, i32 41
  %46 = load ptr, ptr %45, align 8
  %47 = getelementptr inbounds nuw %struct.slurm_step_layout, ptr %46, i32 0, i32 5
  %48 = load i32, ptr %47, align 8
  store i32 %48, ptr %7, align 4
  %49 = load ptr, ptr %5, align 8
  %50 = getelementptr inbounds nuw %struct.step_record_t, ptr %49, i32 0, i32 41
  %51 = load ptr, ptr %50, align 8
  %52 = getelementptr inbounds nuw %struct.slurm_step_layout, ptr %51, i32 0, i32 11
  %53 = load i32, ptr %52, align 4
  store i32 %53, ptr %8, align 4
  %54 = load ptr, ptr %5, align 8
  %55 = getelementptr inbounds nuw %struct.step_record_t, ptr %54, i32 0, i32 41
  %56 = load ptr, ptr %55, align 8
  %57 = getelementptr inbounds nuw %struct.slurm_step_layout, ptr %56, i32 0, i32 6
  %58 = load ptr, ptr %57, align 8
  store ptr %58, ptr %9, align 8
  br label %59

59:                                               ; preds = %38, %22
  %60 = load ptr, ptr %5, align 8
  %61 = getelementptr inbounds nuw %struct.step_record_t, ptr %60, i32 0, i32 21
  %62 = load ptr, ptr %61, align 8
  %63 = getelementptr inbounds nuw %struct.job_record, ptr %62, i32 0, i32 26
  %64 = load i64, ptr %63, align 8
  %65 = icmp ne i64 %64, 0
  br i1 %65, label %84, label %66

66:                                               ; preds = %59
  %67 = load ptr, ptr %5, align 8
  %68 = getelementptr inbounds nuw %struct.step_record_t, ptr %67, i32 0, i32 21
  %69 = load ptr, ptr %68, align 8
  %70 = getelementptr inbounds nuw %struct.job_record, ptr %69, i32 0, i32 30
  %71 = load ptr, ptr %70, align 8
  %72 = icmp ne ptr %71, null
  br i1 %72, label %73, label %82

73:                                               ; preds = %66
  %74 = load ptr, ptr %5, align 8
  %75 = getelementptr inbounds nuw %struct.step_record_t, ptr %74, i32 0, i32 21
  %76 = load ptr, ptr %75, align 8
  %77 = getelementptr inbounds nuw %struct.job_record, ptr %76, i32 0, i32 30
  %78 = load ptr, ptr %77, align 8
  %79 = getelementptr inbounds nuw %struct.job_details_t, ptr %78, i32 0, i32 74
  %80 = load i64, ptr %79, align 8
  %81 = icmp ne i64 %80, 0
  br i1 %81, label %84, label %82

82:                                               ; preds = %73, %66
  %83 = call i32 (ptr, ...) @slurm_error(ptr noundef @.str.65)
  store i32 -1, ptr %3, align 4
  store i32 1, ptr %10, align 4
  br label %226

84:                                               ; preds = %73, %59
  %85 = load ptr, ptr %4, align 8
  call void @llvm.memset.p0.i64(ptr align 8 %85, i8 0, i64 144, i1 false)
  %86 = load ptr, ptr %5, align 8
  %87 = getelementptr inbounds nuw %struct.step_record_t, ptr %86, i32 0, i32 21
  %88 = load ptr, ptr %87, align 8
  %89 = getelementptr inbounds nuw %struct.job_record, ptr %88, i32 0, i32 10
  %90 = load i32, ptr %89, align 8
  %91 = load ptr, ptr %4, align 8
  %92 = getelementptr inbounds nuw %struct.dbd_step_start_msg, ptr %91, i32 0, i32 0
  store i32 %90, ptr %92, align 8
  %93 = load ptr, ptr %5, align 8
  %94 = getelementptr inbounds nuw %struct.step_record_t, ptr %93, i32 0, i32 1
  %95 = load ptr, ptr %94, align 8
  %96 = load ptr, ptr %4, align 8
  %97 = getelementptr inbounds nuw %struct.dbd_step_start_msg, ptr %96, i32 0, i32 2
  store ptr %95, ptr %97, align 8
  %98 = load ptr, ptr %5, align 8
  %99 = getelementptr inbounds nuw %struct.step_record_t, ptr %98, i32 0, i32 21
  %100 = load ptr, ptr %99, align 8
  %101 = getelementptr inbounds nuw %struct.job_record, ptr %100, i32 0, i32 26
  %102 = load i64, ptr %101, align 8
  %103 = load ptr, ptr %4, align 8
  %104 = getelementptr inbounds nuw %struct.dbd_step_start_msg, ptr %103, i32 0, i32 1
  store i64 %102, ptr %104, align 8
  %105 = load ptr, ptr %5, align 8
  %106 = getelementptr inbounds nuw %struct.step_record_t, ptr %105, i32 0, i32 25
  %107 = load ptr, ptr %106, align 8
  %108 = load ptr, ptr %4, align 8
  %109 = getelementptr inbounds nuw %struct.dbd_step_start_msg, ptr %108, i32 0, i32 3
  store ptr %107, ptr %109, align 8
  %110 = load ptr, ptr %9, align 8
  %111 = load ptr, ptr %4, align 8
  %112 = getelementptr inbounds nuw %struct.dbd_step_start_msg, ptr %111, i32 0, i32 4
  store ptr %110, ptr %112, align 8
  %113 = load i32, ptr %7, align 4
  %114 = load ptr, ptr %4, align 8
  %115 = getelementptr inbounds nuw %struct.dbd_step_start_msg, ptr %114, i32 0, i32 6
  store i32 %113, ptr %115, align 8
  %116 = load ptr, ptr %5, align 8
  %117 = getelementptr inbounds nuw %struct.step_record_t, ptr %116, i32 0, i32 35
  %118 = load i64, ptr %117, align 8
  %119 = load ptr, ptr %5, align 8
  %120 = getelementptr inbounds nuw %struct.step_record_t, ptr %119, i32 0, i32 21
  %121 = load ptr, ptr %120, align 8
  %122 = getelementptr inbounds nuw %struct.job_record, ptr %121, i32 0, i32 107
  %123 = load i64, ptr %122, align 8
  %124 = icmp sgt i64 %118, %123
  br i1 %124, label %125, label %131

125:                                              ; preds = %84
  %126 = load ptr, ptr %5, align 8
  %127 = getelementptr inbounds nuw %struct.step_record_t, ptr %126, i32 0, i32 35
  %128 = load i64, ptr %127, align 8
  %129 = load ptr, ptr %4, align 8
  %130 = getelementptr inbounds nuw %struct.dbd_step_start_msg, ptr %129, i32 0, i32 7
  store i64 %128, ptr %130, align 8
  br label %139

131:                                              ; preds = %84
  %132 = load ptr, ptr %5, align 8
  %133 = getelementptr inbounds nuw %struct.step_record_t, ptr %132, i32 0, i32 21
  %134 = load ptr, ptr %133, align 8
  %135 = getelementptr inbounds nuw %struct.job_record, ptr %134, i32 0, i32 107
  %136 = load i64, ptr %135, align 8
  %137 = load ptr, ptr %4, align 8
  %138 = getelementptr inbounds nuw %struct.dbd_step_start_msg, ptr %137, i32 0, i32 7
  store i64 %136, ptr %138, align 8
  br label %139

139:                                              ; preds = %131, %125
  %140 = load ptr, ptr %5, align 8
  %141 = getelementptr inbounds nuw %struct.step_record_t, ptr %140, i32 0, i32 21
  %142 = load ptr, ptr %141, align 8
  %143 = getelementptr inbounds nuw %struct.job_record, ptr %142, i32 0, i32 107
  %144 = load i64, ptr %143, align 8
  %145 = icmp ne i64 %144, 0
  br i1 %145, label %146, label %154

146:                                              ; preds = %139
  %147 = load ptr, ptr %5, align 8
  %148 = getelementptr inbounds nuw %struct.step_record_t, ptr %147, i32 0, i32 21
  %149 = load ptr, ptr %148, align 8
  %150 = getelementptr inbounds nuw %struct.job_record, ptr %149, i32 0, i32 107
  %151 = load i64, ptr %150, align 8
  %152 = load ptr, ptr %4, align 8
  %153 = getelementptr inbounds nuw %struct.dbd_step_start_msg, ptr %152, i32 0, i32 8
  store i64 %151, ptr %153, align 8
  br label %172

154:                                              ; preds = %139
  %155 = load ptr, ptr %5, align 8
  %156 = getelementptr inbounds nuw %struct.step_record_t, ptr %155, i32 0, i32 21
  %157 = load ptr, ptr %156, align 8
  %158 = getelementptr inbounds nuw %struct.job_record, ptr %157, i32 0, i32 30
  %159 = load ptr, ptr %158, align 8
  %160 = icmp ne ptr %159, null
  br i1 %160, label %161, label %171

161:                                              ; preds = %154
  %162 = load ptr, ptr %5, align 8
  %163 = getelementptr inbounds nuw %struct.step_record_t, ptr %162, i32 0, i32 21
  %164 = load ptr, ptr %163, align 8
  %165 = getelementptr inbounds nuw %struct.job_record, ptr %164, i32 0, i32 30
  %166 = load ptr, ptr %165, align 8
  %167 = getelementptr inbounds nuw %struct.job_details_t, ptr %166, i32 0, i32 74
  %168 = load i64, ptr %167, align 8
  %169 = load ptr, ptr %4, align 8
  %170 = getelementptr inbounds nuw %struct.dbd_step_start_msg, ptr %169, i32 0, i32 8
  store i64 %168, ptr %170, align 8
  br label %171

171:                                              ; preds = %161, %154
  br label %172

172:                                              ; preds = %171, %146
  %173 = load ptr, ptr %5, align 8
  %174 = getelementptr inbounds nuw %struct.step_record_t, ptr %173, i32 0, i32 36
  %175 = load i32, ptr %174, align 8
  %176 = load ptr, ptr %4, align 8
  %177 = getelementptr inbounds nuw %struct.dbd_step_start_msg, ptr %176, i32 0, i32 15
  store i32 %175, ptr %177, align 4
  %178 = load ptr, ptr %4, align 8
  %179 = getelementptr inbounds nuw %struct.dbd_step_start_msg, ptr %178, i32 0, i32 12
  %180 = load ptr, ptr %5, align 8
  %181 = getelementptr inbounds nuw %struct.step_record_t, ptr %180, i32 0, i32 40
  call void @llvm.memcpy.p0.p0.i64(ptr align 8 %179, ptr align 8 %181, i64 24, i1 false)
  %182 = load ptr, ptr %5, align 8
  %183 = getelementptr inbounds nuw %struct.step_record_t, ptr %182, i32 0, i32 41
  %184 = load ptr, ptr %183, align 8
  %185 = icmp ne ptr %184, null
  br i1 %185, label %186, label %194

186:                                              ; preds = %172
  %187 = load ptr, ptr %5, align 8
  %188 = getelementptr inbounds nuw %struct.step_record_t, ptr %187, i32 0, i32 41
  %189 = load ptr, ptr %188, align 8
  %190 = getelementptr inbounds nuw %struct.slurm_step_layout, ptr %189, i32 0, i32 11
  %191 = load i32, ptr %190, align 4
  %192 = load ptr, ptr %4, align 8
  %193 = getelementptr inbounds nuw %struct.dbd_step_start_msg, ptr %192, i32 0, i32 14
  store i32 %191, ptr %193, align 8
  br label %194

194:                                              ; preds = %186, %172
  %195 = load i32, ptr %8, align 4
  %196 = load ptr, ptr %4, align 8
  %197 = getelementptr inbounds nuw %struct.dbd_step_start_msg, ptr %196, i32 0, i32 14
  store i32 %195, ptr %197, align 8
  %198 = load i32, ptr %6, align 4
  %199 = load ptr, ptr %4, align 8
  %200 = getelementptr inbounds nuw %struct.dbd_step_start_msg, ptr %199, i32 0, i32 16
  store i32 %198, ptr %200, align 8
  %201 = load ptr, ptr %5, align 8
  %202 = getelementptr inbounds nuw %struct.step_record_t, ptr %201, i32 0, i32 43
  %203 = load ptr, ptr %202, align 8
  %204 = load ptr, ptr %4, align 8
  %205 = getelementptr inbounds nuw %struct.dbd_step_start_msg, ptr %204, i32 0, i32 13
  store ptr %203, ptr %205, align 8
  %206 = load ptr, ptr %5, align 8
  %207 = getelementptr inbounds nuw %struct.step_record_t, ptr %206, i32 0, i32 48
  %208 = load ptr, ptr %207, align 8
  %209 = load ptr, ptr %4, align 8
  %210 = getelementptr inbounds nuw %struct.dbd_step_start_msg, ptr %209, i32 0, i32 17
  store ptr %208, ptr %210, align 8
  %211 = load ptr, ptr %5, align 8
  %212 = getelementptr inbounds nuw %struct.step_record_t, ptr %211, i32 0, i32 8
  %213 = load i32, ptr %212, align 4
  %214 = load ptr, ptr %4, align 8
  %215 = getelementptr inbounds nuw %struct.dbd_step_start_msg, ptr %214, i32 0, i32 9
  store i32 %213, ptr %215, align 8
  %216 = load ptr, ptr %5, align 8
  %217 = getelementptr inbounds nuw %struct.step_record_t, ptr %216, i32 0, i32 9
  %218 = load i32, ptr %217, align 8
  %219 = load ptr, ptr %4, align 8
  %220 = getelementptr inbounds nuw %struct.dbd_step_start_msg, ptr %219, i32 0, i32 10
  store i32 %218, ptr %220, align 4
  %221 = load ptr, ptr %5, align 8
  %222 = getelementptr inbounds nuw %struct.step_record_t, ptr %221, i32 0, i32 10
  %223 = load i32, ptr %222, align 4
  %224 = load ptr, ptr %4, align 8
  %225 = getelementptr inbounds nuw %struct.dbd_step_start_msg, ptr %224, i32 0, i32 11
  store i32 %223, ptr %225, align 8
  store i32 0, ptr %3, align 4
  store i32 1, ptr %10, align 4
  br label %226

226:                                              ; preds = %194, %82
  call void @llvm.lifetime.end.p0(i64 8, ptr %9) #8
  call void @llvm.lifetime.end.p0(i64 4, ptr %8) #8
  call void @llvm.lifetime.end.p0(i64 4, ptr %7) #8
  call void @llvm.lifetime.end.p0(i64 4, ptr %6) #8
  %227 = load i32, ptr %3, align 4
  ret i32 %227
}