; Function Attrs: nounwind uwtable
define dso_local range(i32 -1, 1) i32 @as_build_step_start_msg(ptr noundef writeonly captures(none) %0, ptr noundef readonly captures(none) %1) local_unnamed_addr #0 {
  %3 = getelementptr inbounds nuw i8, ptr %1, i64 304
  %4 = load ptr, ptr %3, align 8
  %.not = icmp eq ptr %4, null
  br i1 %.not, label %8, label %5

5:                                                ; preds = %2
  %6 = getelementptr inbounds nuw i8, ptr %4, i64 72
  %7 = load i32, ptr %6, align 8
  %.not70 = icmp eq i32 %7, 0
  br i1 %.not70, label %8, label %15

8:                                                ; preds = %5, %2
  %9 = getelementptr inbounds nuw i8, ptr %1, i64 136
  %10 = load ptr, ptr %9, align 8
  %11 = getelementptr inbounds nuw i8, ptr %10, i64 992
  %12 = load i32, ptr %11, align 8
  %13 = getelementptr inbounds nuw i8, ptr %10, i64 996
  %14 = getelementptr inbounds nuw i8, ptr %10, i64 568
  br label %20

15:                                               ; preds = %5
  %16 = getelementptr inbounds nuw i8, ptr %4, i64 40
  %17 = getelementptr inbounds nuw i8, ptr %4, i64 76
  %18 = load i32, ptr %17, align 4
  %19 = getelementptr inbounds nuw i8, ptr %4, i64 48
  %.phi.trans.insert = getelementptr inbounds nuw i8, ptr %1, i64 136
  %.pre = load ptr, ptr %.phi.trans.insert, align 8
  br label %20

20:                                               ; preds = %15, %8
  %21 = phi ptr [ %.pre, %15 ], [ %10, %8 ]
  %.060 = phi i32 [ %7, %15 ], [ %12, %8 ]
  %.059.in = phi ptr [ %16, %15 ], [ %13, %8 ]
  %.058 = phi i32 [ %18, %15 ], [ 0, %8 ]
  %.0.in = phi ptr [ %19, %15 ], [ %14, %8 ]
  %.0 = load ptr, ptr %.0.in, align 8
  %.059 = load i32, ptr %.059.in, align 4
  %22 = getelementptr inbounds nuw i8, ptr %1, i64 136
  %23 = getelementptr inbounds nuw i8, ptr %21, i64 192
  %24 = load i64, ptr %23, align 8
  %.not71 = icmp eq i64 %24, 0
  br i1 %.not71, label %25, label %33

25:                                               ; preds = %20
  %26 = getelementptr inbounds nuw i8, ptr %21, i64 216
  %27 = load ptr, ptr %26, align 8
  %.not72 = icmp eq ptr %27, null
  br i1 %.not72, label %31, label %28

28:                                               ; preds = %25
  %29 = getelementptr inbounds nuw i8, ptr %27, i64 464
  %30 = load i64, ptr %29, align 8
  %.not73 = icmp eq i64 %30, 0
  br i1 %.not73, label %31, label %33

31:                                               ; preds = %28, %25
  %32 = tail call i32 (ptr, ...) @slurm_error(ptr noundef nonnull @.str.65) #12
  br label %88

33:                                               ; preds = %28, %20
  tail call void @llvm.memset.p0.i64(ptr noundef nonnull align 8 dereferenceable(144) %0, i8 0, i64 144, i1 false)
  %34 = load ptr, ptr %22, align 8
  %35 = getelementptr inbounds nuw i8, ptr %34, i64 64
  %36 = load i32, ptr %35, align 8
  store i32 %36, ptr %0, align 8
  %37 = getelementptr inbounds nuw i8, ptr %1, i64 8
  %38 = load ptr, ptr %37, align 8
  %39 = getelementptr inbounds nuw i8, ptr %0, i64 16
  store ptr %38, ptr %39, align 8
  %40 = load ptr, ptr %22, align 8
  %41 = getelementptr inbounds nuw i8, ptr %40, i64 192
  %42 = load i64, ptr %41, align 8
  %43 = getelementptr inbounds nuw i8, ptr %0, i64 8
  store i64 %42, ptr %43, align 8
  %44 = getelementptr inbounds nuw i8, ptr %1, i64 168
  %45 = load ptr, ptr %44, align 8
  %46 = getelementptr inbounds nuw i8, ptr %0, i64 24
  store ptr %45, ptr %46, align 8
  %47 = getelementptr inbounds nuw i8, ptr %0, i64 32
  store ptr %.0, ptr %47, align 8
  %48 = getelementptr inbounds nuw i8, ptr %0, i64 48
  store i32 %.059, ptr %48, align 8
  %49 = getelementptr inbounds nuw i8, ptr %1, i64 248
  %50 = load i64, ptr %49, align 8
  %51 = load ptr, ptr %22, align 8
  %52 = getelementptr inbounds nuw i8, ptr %51, i64 792
  %53 = load i64, ptr %52, align 8
  %spec.select = tail call i64 @llvm.smax.i64(i64 %50, i64 %53)
  %54 = getelementptr inbounds nuw i8, ptr %0, i64 56
  store i64 %spec.select, ptr %54, align 8
  %55 = load ptr, ptr %22, align 8
  %56 = getelementptr inbounds nuw i8, ptr %55, i64 792
  %57 = load i64, ptr %56, align 8
  %.not74 = icmp eq i64 %57, 0
  br i1 %.not74, label %58, label %.sink.split

58:                                               ; preds = %33
  %59 = getelementptr inbounds nuw i8, ptr %55, i64 216
  %60 = load ptr, ptr %59, align 8
  %.not75 = icmp eq ptr %60, null
  br i1 %.not75, label %65, label %61

61:                                               ; preds = %58
  %62 = getelementptr inbounds nuw i8, ptr %60, i64 464
  %63 = load i64, ptr %62, align 8
  br label %.sink.split

.sink.split:                                      ; preds = %33, %61
  %.sink = phi i64 [ %63, %61 ], [ %57, %33 ]
  %64 = getelementptr inbounds nuw i8, ptr %0, i64 64
  store i64 %.sink, ptr %64, align 8
  br label %65

65:                                               ; preds = %.sink.split, %58
  %66 = getelementptr inbounds nuw i8, ptr %1, i64 256
  %67 = load i32, ptr %66, align 8
  %68 = getelementptr inbounds nuw i8, ptr %0, i64 124
  store i32 %67, ptr %68, align 4
  %69 = getelementptr inbounds nuw i8, ptr %0, i64 88
  %70 = getelementptr inbounds nuw i8, ptr %1, i64 280
  tail call void @llvm.memcpy.p0.p0.i64(ptr noundef nonnull align 8 dereferenceable(24) %69, ptr noundef nonnull align 8 dereferenceable(24) %70, i64 24, i1 false)
  %71 = getelementptr inbounds nuw i8, ptr %0, i64 120
  store i32 %.058, ptr %71, align 8
  %72 = getelementptr inbounds nuw i8, ptr %0, i64 128
  store i32 %.060, ptr %72, align 8
  %73 = getelementptr inbounds nuw i8, ptr %1, i64 320
  %74 = load ptr, ptr %73, align 8
  %75 = getelementptr inbounds nuw i8, ptr %0, i64 112
  store ptr %74, ptr %75, align 8
  %76 = getelementptr inbounds nuw i8, ptr %1, i64 360
  %77 = load ptr, ptr %76, align 8
  %78 = getelementptr inbounds nuw i8, ptr %0, i64 136
  store ptr %77, ptr %78, align 8
  %79 = getelementptr inbounds nuw i8, ptr %1, i64 60
  %80 = load i32, ptr %79, align 4
  %81 = getelementptr inbounds nuw i8, ptr %0, i64 72
  store i32 %80, ptr %81, align 8
  %82 = getelementptr inbounds nuw i8, ptr %1, i64 64
  %83 = load i32, ptr %82, align 8
  %84 = getelementptr inbounds nuw i8, ptr %0, i64 76
  store i32 %83, ptr %84, align 4
  %85 = getelementptr inbounds nuw i8, ptr %1, i64 68
  %86 = load i32, ptr %85, align 4
  %87 = getelementptr inbounds nuw i8, ptr %0, i64 80
  store i32 %86, ptr %87, align 8
  br label %88

88:                                               ; preds = %65, %31
  %.061 = phi i32 [ 0, %65 ], [ -1, %31 ]
  ret i32 %.061
}